target datalayout = "e-m:e-p270:32:32-p271:32:32-p272:64:64-i64:64-i128:128-f80:128-n8:16:32:64-S128"
target triple = "x86_64-pc-linux-gnu"

%struct.Vec_Int_t_ = type { i32, i32, ptr }

; Function Attrs: inlinehint nounwind uwtable
define internal i32 @Vec_IntEntry(ptr noundef %0, i32 noundef %1) #2 {
  %3 = alloca ptr, align 8
  %4 = alloca i32, align 4
  store ptr %0, ptr %3, align 8, !tbaa !12
  store i32 %1, ptr %4, align 4, !tbaa !10
  %5 = load ptr, ptr %3, align 8, !tbaa !12
  %6 = getelementptr inbounds nuw %struct.Vec_Int_t_, ptr %5, i32 0, i32 2
  %7 = load ptr, ptr %6, align 8, !tbaa !18
  %8 = load i32, ptr %4, align 4, !tbaa !10
  %9 = sext i32 %8 to i64
  %10 = getelementptr inbounds i32, ptr %7, i64 %9
  %11 = load i32, ptr %10, align 4, !tbaa !10
  ret i32 %11
}

; Function Attrs: inlinehint nounwind uwtable
define internal i32 @Vec_IntSize(ptr noundef %0) #2 {
  %2 = alloca ptr, align 8
  store ptr %0, ptr %2, align 8, !tbaa !12
  %3 = load ptr, ptr %2, align 8, !tbaa !12
  %4 = getelementptr inbounds nuw %struct.Vec_Int_t_, ptr %3, i32 0, i32 1
  %5 = load i32, ptr %4, align 4, !tbaa !14
  ret i32 %5
}

; Function Attrs: nounwind uwtable
define i32 @Gia_ManDeriveSimpleCost(ptr noundef %0) #0 {
  %2 = alloca ptr, align 8
  %3 = alloca i32, align 4
  %4 = alloca i32, align 4
  %5 = alloca i32, align 4
  %6 = alloca i32, align 4
  store ptr %0, ptr %2, align 8, !tbaa !12
  call void @llvm.lifetime.start.p0(i64 4, ptr %3) #14
  call void @llvm.lifetime.start.p0(i64 4, ptr %4) #14
  call void @llvm.lifetime.start.p0(i64 4, ptr %5) #14
  call void @llvm.lifetime.start.p0(i64 4, ptr %6) #14
  store i32 0, ptr %6, align 4, !tbaa !10
  store i32 0, ptr %3, align 4, !tbaa !10
  br label %7

7:                                                ; preds = %30, %1
  %8 = load i32, ptr %3, align 4, !tbaa !10
  %9 = add nsw i32 %8, 1
  %10 = load ptr, ptr %2, align 8, !tbaa !12
  %11 = call i32 @Vec_IntSize(ptr noundef %10)
  %12 = icmp slt i32 %9, %11
  br i1 %12, label %13, label %22

13:                                               ; preds = %7
  %14 = load ptr, ptr %2, align 8, !tbaa !12
  %15 = load i32, ptr %3, align 4, !tbaa !10
  %16 = call i32 @Vec_IntEntry(ptr noundef %14, i32 noundef %15)
  store i32 %16, ptr %4, align 4, !tbaa !10
  br i1 true, label %17, label %22

17:                                               ; preds = %13
  %18 = load ptr, ptr %2, align 8, !tbaa !12
  %19 = load i32, ptr %3, align 4, !tbaa !10
  %20 = add nsw i32 %19, 1
  %21 = call i32 @Vec_IntEntry(ptr noundef %18, i32 noundef %20)
  store i32 %21, ptr %5, align 4, !tbaa !10
  br label %22

22:                                               ; preds = %17, %13, %7
  %23 = phi i1 [ false, %13 ], [ false, %7 ], [ true, %17 ]
  br i1 %23, label %24, label %33

24:                                               ; preds = %22
  %25 = load i32, ptr %4, align 4, !tbaa !10
  %26 = load i32, ptr %5, align 4, !tbaa !10
  %27 = mul nsw i32 %25, %26
  %28 = load i32, ptr %6, align 4, !tbaa !10
  %29 = add nsw i32 %28, %27
  store i32 %29, ptr %6, align 4, !tbaa !10
  br label %30

30:                                               ; preds = %24
  %31 = load i32, ptr %3, align 4, !tbaa !10
  %32 = add nsw i32 %31, 2
  store i32 %32, ptr %3, align 4, !tbaa !10
  br label %7, !llvm.loop !243

33:                                               ; preds = %22
  %34 = load i32, ptr %6, align 4, !tbaa !10
  call void @llvm.lifetime.end.p0(i64 4, ptr %6) #14
  call void @llvm.lifetime.end.p0(i64 4, ptr %5) #14
  call void @llvm.lifetime.end.p0(i64 4, ptr %4) #14
  call void @llvm.lifetime.end.p0(i64 4, ptr %3) #14
  ret i32 %34
}