; Function Attrs: nofree norecurse nosync nounwind memory(read, inaccessiblemem: none) uwtable
define i32 @Gia_ManDeriveSimpleCost(ptr noundef readonly captures(none) %0) local_unnamed_addr #13 {
  %2 = getelementptr i8, ptr %0, i64 4
  %.val = load i32, ptr %2, align 4, !tbaa !28
  %3 = icmp sgt i32 %.val, 1
  br i1 %3, label %.lr.ph, label %.critedge

.lr.ph:                                           ; preds = %1
  %4 = getelementptr i8, ptr %0, i64 8
  %.val13 = load ptr, ptr %4, align 8, !tbaa !30
  %5 = zext nneg i32 %.val to i64
  br label %6

6:                                                ; preds = %.lr.ph, %6
  %indvars.iv = phi i64 [ 0, %.lr.ph ], [ %indvars.iv.next, %6 ]
  %.015 = phi i32 [ 0, %.lr.ph ], [ %13, %6 ]
  %7 = or disjoint i64 %indvars.iv, 1
  %8 = getelementptr inbounds nuw i32, ptr %.val13, i64 %indvars.iv
  %9 = load i32, ptr %8, align 4, !tbaa !31
  %10 = getelementptr inbounds nuw i32, ptr %.val13, i64 %7
  %11 = load i32, ptr %10, align 4, !tbaa !31
  %12 = mul nsw i32 %11, %9
  %13 = add nsw i32 %12, %.015
  %indvars.iv.next = add nuw nsw i64 %indvars.iv, 2
  %14 = or disjoint i64 %indvars.iv.next, 1
  %15 = icmp samesign ult i64 %14, %5
  br i1 %15, label %6, label %.critedge, !llvm.loop !219

.critedge:                                        ; preds = %6, %1
  %.0.lcssa = phi i32 [ 0, %1 ], [ %13, %6 ]
  ret i32 %.0.lcssa
}